; Function Attrs: nofree norecurse nounwind memory(argmem: readwrite, inaccessiblemem: readwrite) uwtable
define internal void @lcon(ptr noundef initializes((144, 272)) %0) #2 {
  %2 = getelementptr inbounds nuw i8, ptr %0, i64 144
  tail call void @llvm.memset.p0.i64(ptr noundef nonnull align 8 dereferenceable(128) %2, i8 0, i64 128, i1 false)
  %3 = getelementptr inbounds nuw i8, ptr %0, i64 272
  store volatile i8 0, ptr %3, align 8, !tbaa !141
  %4 = getelementptr inbounds nuw i8, ptr %0, i64 276
  store i32 -1, ptr %4, align 4, !tbaa !142
  %5 = getelementptr inbounds nuw i8, ptr %0, i64 280
  %6 = getelementptr inbounds nuw i8, ptr %0, i64 300
  store i8 0, ptr %6, align 4, !tbaa !143
  %7 = getelementptr inbounds nuw i8, ptr %0, i64 308
  store i8 0, ptr %7, align 4, !tbaa !144
  %8 = getelementptr inbounds nuw i8, ptr %0, i64 312
  tail call void @llvm.memset.p0.i64(ptr noundef nonnull align 8 dereferenceable(16) %5, i8 0, i64 16, i1 false)
  store i32 436, ptr %8, align 8, !tbaa !145
  ret void
}